; Function Attrs: nounwind uwtable
define void @stbtt_MakeGlyphBitmapSubpixelPrefilter(ptr noundef readonly captures(none) %0, ptr noundef %1, i32 noundef %2, i32 noundef %3, i32 noundef %4, float noundef %5, float noundef %6, float noundef %7, float noundef %8, i32 noundef %9, i32 noundef %10, ptr noundef writeonly captures(none) initializes((0, 4)) %11, ptr noundef writeonly captures(none) initializes((0, 4)) %12, i32 noundef %13) local_unnamed_addr #11 {
  %.neg31 = add i32 %2, 1
  %15 = sub i32 %.neg31, %9
  %.neg33 = add i32 %3, 1
  %16 = sub i32 %.neg33, %10
  tail call void @stbtt_MakeGlyphBitmapSubpixel(ptr noundef %0, ptr noundef %1, i32 noundef %15, i32 noundef %16, i32 noundef %4, float noundef %5, float noundef %6, float noundef %7, float noundef %8, i32 noundef %13)
  %17 = icmp sgt i32 %9, 1
  br i1 %17, label %18, label %19

18:                                               ; preds = %14
  tail call void @stbtt__h_prefilter(ptr noundef %1, i32 noundef %2, i32 noundef %3, i32 noundef %4, i32 noundef %9)
  br label %19

19:                                               ; preds = %18, %14
  %20 = icmp sgt i32 %10, 1
  br i1 %20, label %21, label %22

21:                                               ; preds = %19
  tail call void @stbtt__v_prefilter(ptr noundef %1, i32 noundef %2, i32 noundef %3, i32 noundef %4, i32 noundef %10)
  br label %22

22:                                               ; preds = %21, %19
  %.not.i = icmp eq i32 %9, 0
  br i1 %.not.i, label %stbtt__oversample_shift.exit, label %23

23:                                               ; preds = %22
  %24 = sub nsw i32 1, %9
  %25 = sitofp i32 %24 to float
  %26 = sitofp i32 %9 to float
  %27 = fmul float %26, 2.000000e+00
  %28 = fdiv float %25, %27
  br label %stbtt__oversample_shift.exit

stbtt__oversample_shift.exit:                     ; preds = %22, %23
  %.0.i = phi float [ %28, %23 ], [ 0.000000e+00, %22 ]
  store float %.0.i, ptr %11, align 4, !tbaa !71
  %.not.i28 = icmp eq i32 %10, 0
  br i1 %.not.i28, label %stbtt__oversample_shift.exit30, label %29

29:                                               ; preds = %stbtt__oversample_shift.exit
  %30 = sub nsw i32 1, %10
  %31 = sitofp i32 %30 to float
  %32 = sitofp i32 %10 to float
  %33 = fmul float %32, 2.000000e+00
  %34 = fdiv float %31, %33
  br label %stbtt__oversample_shift.exit30

stbtt__oversample_shift.exit30:                   ; preds = %stbtt__oversample_shift.exit, %29
  %.0.i29 = phi float [ %34, %29 ], [ 0.000000e+00, %stbtt__oversample_shift.exit ]
  store float %.0.i29, ptr %12, align 4, !tbaa !71
  ret void
}